target datalayout = "e-m:e-p270:32:32-p271:32:32-p272:64:64-i64:64-i128:128-f80:128-n8:16:32:64-S128"
target triple = "x86_64-pc-linux-gnu"

@.str = private unnamed_addr constant [2 x i8] c"r\00", align 1

; Function Attrs: mustprogress uwtable
define void @_Z12get_coordnumRKNSt10filesystem7__cxx114pathEPi(ptr noundef nonnull align 8 dereferenceable(40) %0, ptr noundef %1) #0 {
  %3 = alloca ptr, align 8
  %4 = alloca ptr, align 8
  %5 = alloca ptr, align 8
  %6 = alloca [4096 x i8], align 16
  store ptr %0, ptr %3, align 8, !tbaa !4
  store ptr %1, ptr %4, align 8, !tbaa !9
  call void @llvm.lifetime.start.p0(i64 8, ptr %5) #13
  call void @llvm.lifetime.start.p0(i64 4096, ptr %6) #13
  %7 = load ptr, ptr %3, align 8, !tbaa !4
  %8 = call noundef ptr @_Z13gmx_fio_fopenRKNSt10filesystem7__cxx114pathEPKc(ptr noundef nonnull align 8 dereferenceable(40) %7, ptr noundef @.str)
  store ptr %8, ptr %5, align 8, !tbaa !11
  %9 = load ptr, ptr %5, align 8, !tbaa !11
  %10 = getelementptr inbounds [4096 x i8], ptr %6, i64 0, i64 0
  %11 = load ptr, ptr %4, align 8, !tbaa !9
  call void @_ZL15get_coordnum_fpP8_IO_FILEPcPi(ptr noundef %9, ptr noundef %10, ptr noundef %11)
  %12 = load ptr, ptr %5, align 8, !tbaa !11
  %13 = call noundef i32 @_Z14gmx_fio_fcloseP8_IO_FILE(ptr noundef %12)
  call void @llvm.lifetime.end.p0(i64 4096, ptr %6) #13
  call void @llvm.lifetime.end.p0(i64 8, ptr %5) #13
  ret void
}