; Function Attrs: mustprogress uwtable
define void @_Z12get_coordnumRKNSt10filesystem7__cxx114pathEPi(ptr noundef nonnull align 8 dereferenceable(40) %0, ptr noundef %1) local_unnamed_addr #0 {
  %3 = alloca [4096 x i8], align 16
  call void @llvm.lifetime.start.p0(i64 4096, ptr nonnull %3) #19
  %4 = tail call noundef ptr @_Z13gmx_fio_fopenRKNSt10filesystem7__cxx114pathEPKc(ptr noundef nonnull align 8 dereferenceable(40) %0, ptr noundef nonnull @.str)
  call fastcc void @_ZL15get_coordnum_fpP8_IO_FILEPcPi(ptr noundef %4, ptr noundef %3, ptr noundef %1)
  %5 = call noundef i32 @_Z14gmx_fio_fcloseP8_IO_FILE(ptr noundef %4)
  call void @llvm.lifetime.end.p0(i64 4096, ptr nonnull %3) #19
  ret void
}